; Function Attrs: nounwind uwtable
define zeroext range(i8 0, 2) i8 @l___private_Lean_Meta_CongrTheorems_0__Lean_Meta_hasCastLike(ptr noundef readonly captures(none) %0) local_unnamed_addr #1 {
lean_nat_lt.exit:
  %1 = getelementptr i8, ptr %0, i64 8
  %.val = load i64, ptr %1, align 8, !tbaa !16
  %.mask = and i64 %.val, 9223372036854775807
  %.not = icmp eq i64 %.mask, 0
  br i1 %.not, label %lean_dec.exit12, label %.lr.ph.i

.lr.ph.i:                                         ; preds = %lean_nat_lt.exit
  %2 = getelementptr inbounds nuw i8, ptr %0, i64 24
  br label %3

3:                                                ; preds = %22, %.lr.ph.i
  %.02352.i = phi i64 [ 0, %.lr.ph.i ], [ %23, %22 ]
  %4 = getelementptr inbounds nuw [0 x ptr], ptr %2, i64 0, i64 %.02352.i
  %5 = load ptr, ptr %4, align 8, !tbaa !10
  %6 = ptrtoint ptr %5 to i64
  %7 = and i64 %6, 1
  %.not.i39.i = icmp eq i64 %7, 0
  br i1 %.not.i39.i, label %8, label %lean_dec.exit32.i

8:                                                ; preds = %3
  %.val.i.i.i = load i32, ptr %5, align 4, !tbaa !4
  %9 = icmp sgt i32 %.val.i.i.i, 0
  br i1 %9, label %10, label %12, !prof !9

10:                                               ; preds = %8
  %11 = add nuw i32 %.val.i.i.i, 1
  store i32 %11, ptr %5, align 4, !tbaa !4
  br label %14

12:                                               ; preds = %8
  %.not.i.i.i = icmp eq i32 %.val.i.i.i, 0
  br i1 %.not.i.i.i, label %lean_dec.exit32.i, label %13

13:                                               ; preds = %12
  tail call void @lean_inc_ref_cold(ptr noundef nonnull %5) #7
  %.pr.i = load i32, ptr %5, align 4, !tbaa !4
  br label %14

14:                                               ; preds = %13, %10
  %15 = phi i32 [ %11, %10 ], [ %.pr.i, %13 ]
  %16 = icmp sgt i32 %15, 1
  br i1 %16, label %17, label %19, !prof !14

17:                                               ; preds = %14
  %18 = add nsw i32 %15, -1
  store i32 %18, ptr %5, align 4, !tbaa !4
  br label %lean_dec.exit32.i

19:                                               ; preds = %14
  %.not.i.i = icmp eq i32 %15, 0
  br i1 %.not.i.i, label %lean_dec.exit32.i, label %20

20:                                               ; preds = %19
  tail call void @lean_dec_ref_cold(ptr noundef nonnull %5) #7
  br label %lean_dec.exit32.i

lean_dec.exit32.i:                                ; preds = %20, %19, %17, %12, %3
  %21 = lshr i64 %6, 1
  %trunc.i = trunc i64 %21 to i8
  switch i8 %trunc.i, label %22 [
    i8 3, label %lean_dec.exit12
    i8 5, label %lean_dec.exit12
  ]

22:                                               ; preds = %lean_dec.exit32.i
  %23 = add nuw nsw i64 %.02352.i, 1
  %.not.i16 = icmp eq i64 %23, %.mask
  br i1 %.not.i16, label %lean_dec.exit12, label %3

lean_dec.exit12:                                  ; preds = %22, %lean_dec.exit32.i, %lean_dec.exit32.i, %lean_nat_lt.exit
  %.0 = phi i8 [ 0, %lean_nat_lt.exit ], [ 0, %22 ], [ 1, %lean_dec.exit32.i ], [ 1, %lean_dec.exit32.i ]
  ret i8 %.0
}